target datalayout = "e-m:e-p270:32:32-p271:32:32-p272:64:64-i64:64-i128:128-f80:128-n8:16:32:64-S128"
target triple = "x86_64-pc-linux-gnu"

%struct._Node = type { %union.anon.35 }
%union.anon.35 = type { %struct.BagNode }
%struct.BagNode = type { i32, i32, ptr, ptr, i32, %union.anon.37, i32, i32, i32, i32, i32 }
%union.anon.37 = type { %struct.anon.40 }
%struct.anon.40 = type { ptr, ptr }
%struct.anon.36 = type { i32, i32, ptr, ptr }
%struct.ConsAltNode = type { i32, i32, ptr, ptr, ptr }
%struct.anon.38 = type { i32, i32, i32, i32 }
%struct.GroupNumMap = type { i32 }

; Function Attrs: nounwind uwtable
define internal i32 @make_named_capture_number_map(ptr noundef %0, ptr noundef %1, ptr noundef %2) #0 {
  %4 = alloca i32, align 4
  %5 = alloca ptr, align 8
  %6 = alloca ptr, align 8
  %7 = alloca ptr, align 8
  %8 = alloca i32, align 4
  %9 = alloca ptr, align 8
  %10 = alloca i32, align 4
  %11 = alloca ptr, align 8
  %12 = alloca ptr, align 8
  store ptr %0, ptr %5, align 8, !tbaa !58
  store ptr %1, ptr %6, align 8, !tbaa !15
  store ptr %2, ptr %7, align 8, !tbaa !104
  call void @llvm.lifetime.start.p0(i64 4, ptr %8) #9
  call void @llvm.lifetime.start.p0(i64 8, ptr %9) #9
  %13 = load ptr, ptr %5, align 8, !tbaa !58
  %14 = load ptr, ptr %13, align 8, !tbaa !47
  store ptr %14, ptr %9, align 8, !tbaa !47
  %15 = load ptr, ptr %9, align 8, !tbaa !47
  %16 = getelementptr inbounds nuw %struct._Node, ptr %15, i32 0, i32 0
  %17 = getelementptr inbounds nuw %struct.anon.36, ptr %16, i32 0, i32 0
  %18 = load i32, ptr %17, align 8, !tbaa !32
  switch i32 %18, label %225 [
    i32 7, label %19
    i32 8, label %19
    i32 4, label %44
    i32 5, label %73
    i32 6, label %206
  ]

19:                                               ; preds = %3, %3
  br label %20

20:                                               ; preds = %36, %19
  %21 = load ptr, ptr %9, align 8, !tbaa !47
  %22 = getelementptr inbounds nuw %struct._Node, ptr %21, i32 0, i32 0
  %23 = getelementptr inbounds nuw %struct.ConsAltNode, ptr %22, i32 0, i32 3
  %24 = load ptr, ptr %6, align 8, !tbaa !15
  %25 = load ptr, ptr %7, align 8, !tbaa !104
  %26 = call i32 @make_named_capture_number_map(ptr noundef %23, ptr noundef %24, ptr noundef %25)
  store i32 %26, ptr %8, align 4, !tbaa !4
  br label %27

27:                                               ; preds = %20
  %28 = load i32, ptr %8, align 4, !tbaa !4
  %29 = icmp sge i32 %28, 0
  br i1 %29, label %30, label %36

30:                                               ; preds = %27
  %31 = load ptr, ptr %9, align 8, !tbaa !47
  %32 = getelementptr inbounds nuw %struct._Node, ptr %31, i32 0, i32 0
  %33 = getelementptr inbounds nuw %struct.ConsAltNode, ptr %32, i32 0, i32 4
  %34 = load ptr, ptr %33, align 8, !tbaa !32
  store ptr %34, ptr %9, align 8, !tbaa !47
  %35 = icmp ne ptr %34, null
  br label %36

36:                                               ; preds = %30, %27
  %37 = phi i1 [ false, %27 ], [ %35, %30 ]
  br i1 %37, label %20, label %38, !llvm.loop !199

38:                                               ; preds = %36
  %39 = load i32, ptr %8, align 4, !tbaa !4
  %40 = icmp slt i32 %39, 0
  br i1 %40, label %41, label %43

41:                                               ; preds = %38
  %42 = load i32, ptr %8, align 4, !tbaa !4
  store i32 %42, ptr %4, align 4
  store i32 1, ptr %10, align 4
  br label %227

43:                                               ; preds = %38
  br label %226

44:                                               ; preds = %3
  call void @llvm.lifetime.start.p0(i64 8, ptr %11) #9
  %45 = load ptr, ptr %9, align 8, !tbaa !47
  %46 = getelementptr inbounds nuw %struct._Node, ptr %45, i32 0, i32 0
  %47 = getelementptr inbounds nuw %struct.anon.36, ptr %46, i32 0, i32 3
  store ptr %47, ptr %11, align 8, !tbaa !58
  %48 = load ptr, ptr %11, align 8, !tbaa !58
  %49 = load ptr, ptr %6, align 8, !tbaa !15
  %50 = load ptr, ptr %7, align 8, !tbaa !104
  %51 = call i32 @make_named_capture_number_map(ptr noundef %48, ptr noundef %49, ptr noundef %50)
  store i32 %51, ptr %8, align 4, !tbaa !4
  %52 = load i32, ptr %8, align 4, !tbaa !4
  %53 = icmp slt i32 %52, 0
  br i1 %53, label %54, label %56

54:                                               ; preds = %44
  %55 = load i32, ptr %8, align 4, !tbaa !4
  store i32 %55, ptr %4, align 4
  store i32 1, ptr %10, align 4
  br label %70

56:                                               ; preds = %44
  %57 = load i32, ptr %8, align 4, !tbaa !4
  %58 = icmp eq i32 %57, 1
  br i1 %58, label %59, label %69

59:                                               ; preds = %56
  %60 = load ptr, ptr %11, align 8, !tbaa !58
  %61 = load ptr, ptr %60, align 8, !tbaa !47
  %62 = getelementptr inbounds nuw %struct._Node, ptr %61, i32 0, i32 0
  %63 = getelementptr inbounds nuw %struct.anon.36, ptr %62, i32 0, i32 0
  %64 = load i32, ptr %63, align 8, !tbaa !32
  %65 = icmp eq i32 %64, 4
  br i1 %65, label %66, label %69

66:                                               ; preds = %59
  %67 = load ptr, ptr %9, align 8, !tbaa !47
  %68 = call i32 @onig_reduce_nested_quantifier(ptr noundef %67)
  store i32 %68, ptr %4, align 4
  store i32 1, ptr %10, align 4
  br label %70

69:                                               ; preds = %59, %56
  store i32 0, ptr %10, align 4
  br label %70

70:                                               ; preds = %69, %66, %54
  call void @llvm.lifetime.end.p0(i64 8, ptr %11) #9
  %71 = load i32, ptr %10, align 4
  switch i32 %71, label %227 [
    i32 0, label %72
  ]

72:                                               ; preds = %70
  br label %226

73:                                               ; preds = %3
  call void @llvm.lifetime.start.p0(i64 8, ptr %12) #9
  %74 = load ptr, ptr %9, align 8, !tbaa !47
  %75 = getelementptr inbounds nuw %struct._Node, ptr %74, i32 0, i32 0
  store ptr %75, ptr %12, align 8, !tbaa !15
  %76 = load ptr, ptr %12, align 8, !tbaa !15
  %77 = getelementptr inbounds nuw %struct.BagNode, ptr %76, i32 0, i32 4
  %78 = load i32, ptr %77, align 8, !tbaa !156
  %79 = icmp eq i32 %78, 0
  br i1 %79, label %80, label %137

80:                                               ; preds = %73
  %81 = load ptr, ptr %9, align 8, !tbaa !47
  %82 = getelementptr inbounds nuw %struct._Node, ptr %81, i32 0, i32 0
  %83 = getelementptr inbounds nuw %struct.anon.36, ptr %82, i32 0, i32 1
  %84 = load i32, ptr %83, align 4, !tbaa !32
  %85 = and i32 %84, 512
  %86 = icmp ne i32 %85, 0
  br i1 %86, label %87, label %117

87:                                               ; preds = %80
  %88 = load ptr, ptr %7, align 8, !tbaa !104
  %89 = load i32, ptr %88, align 4, !tbaa !4
  %90 = add nsw i32 %89, 1
  store i32 %90, ptr %88, align 4, !tbaa !4
  %91 = load ptr, ptr %7, align 8, !tbaa !104
  %92 = load i32, ptr %91, align 4, !tbaa !4
  %93 = load ptr, ptr %6, align 8, !tbaa !15
  %94 = load ptr, ptr %12, align 8, !tbaa !15
  %95 = getelementptr inbounds nuw %struct.BagNode, ptr %94, i32 0, i32 5
  %96 = getelementptr inbounds nuw %struct.anon.38, ptr %95, i32 0, i32 0
  %97 = load i32, ptr %96, align 8, !tbaa !32
  %98 = sext i32 %97 to i64
  %99 = getelementptr inbounds %struct.GroupNumMap, ptr %93, i64 %98
  %100 = getelementptr inbounds nuw %struct.GroupNumMap, ptr %99, i32 0, i32 0
  store i32 %92, ptr %100, align 4, !tbaa !168
  %101 = load ptr, ptr %7, align 8, !tbaa !104
  %102 = load i32, ptr %101, align 4, !tbaa !4
  %103 = load ptr, ptr %12, align 8, !tbaa !15
  %104 = getelementptr inbounds nuw %struct.BagNode, ptr %103, i32 0, i32 5
  %105 = getelementptr inbounds nuw %struct.anon.38, ptr %104, i32 0, i32 0
  store i32 %102, ptr %105, align 8, !tbaa !32
  %106 = load ptr, ptr %9, align 8, !tbaa !47
  %107 = getelementptr inbounds nuw %struct._Node, ptr %106, i32 0, i32 0
  %108 = getelementptr inbounds nuw %struct.anon.36, ptr %107, i32 0, i32 3
  %109 = load ptr, ptr %6, align 8, !tbaa !15
  %110 = load ptr, ptr %7, align 8, !tbaa !104
  %111 = call i32 @make_named_capture_number_map(ptr noundef %108, ptr noundef %109, ptr noundef %110)
  store i32 %111, ptr %8, align 4, !tbaa !4
  %112 = load i32, ptr %8, align 4, !tbaa !4
  %113 = icmp slt i32 %112, 0
  br i1 %113, label %114, label %116

114:                                              ; preds = %87
  %115 = load i32, ptr %8, align 4, !tbaa !4
  store i32 %115, ptr %4, align 4
  store i32 1, ptr %10, align 4
  br label %203

116:                                              ; preds = %87
  br label %136

117:                                              ; preds = %80
  %118 = load ptr, ptr %9, align 8, !tbaa !47
  %119 = getelementptr inbounds nuw %struct._Node, ptr %118, i32 0, i32 0
  %120 = getelementptr inbounds nuw %struct.anon.36, ptr %119, i32 0, i32 3
  %121 = load ptr, ptr %120, align 8, !tbaa !32
  %122 = load ptr, ptr %5, align 8, !tbaa !58
  store ptr %121, ptr %122, align 8, !tbaa !47
  %123 = load ptr, ptr %9, align 8, !tbaa !47
  %124 = getelementptr inbounds nuw %struct._Node, ptr %123, i32 0, i32 0
  %125 = getelementptr inbounds nuw %struct.anon.36, ptr %124, i32 0, i32 3
  store ptr null, ptr %125, align 8, !tbaa !32
  %126 = load ptr, ptr %9, align 8, !tbaa !47
  call void @onig_node_free(ptr noundef %126)
  %127 = load ptr, ptr %5, align 8, !tbaa !58
  %128 = load ptr, ptr %6, align 8, !tbaa !15
  %129 = load ptr, ptr %7, align 8, !tbaa !104
  %130 = call i32 @make_named_capture_number_map(ptr noundef %127, ptr noundef %128, ptr noundef %129)
  store i32 %130, ptr %8, align 4, !tbaa !4
  %131 = load i32, ptr %8, align 4, !tbaa !4
  %132 = icmp slt i32 %131, 0
  br i1 %132, label %133, label %135

133:                                              ; preds = %117
  %134 = load i32, ptr %8, align 4, !tbaa !4
  store i32 %134, ptr %4, align 4
  store i32 1, ptr %10, align 4
  br label %203

135:                                              ; preds = %117
  store i32 1, ptr %4, align 4
  store i32 1, ptr %10, align 4
  br label %203

136:                                              ; preds = %116
  br label %202

137:                                              ; preds = %73
  %138 = load ptr, ptr %12, align 8, !tbaa !15
  %139 = getelementptr inbounds nuw %struct.BagNode, ptr %138, i32 0, i32 4
  %140 = load i32, ptr %139, align 8, !tbaa !156
  %141 = icmp eq i32 %140, 3
  br i1 %141, label %142, label %189

142:                                              ; preds = %137
  %143 = load ptr, ptr %12, align 8, !tbaa !15
  %144 = getelementptr inbounds nuw %struct.BagNode, ptr %143, i32 0, i32 3
  %145 = load ptr, ptr %6, align 8, !tbaa !15
  %146 = load ptr, ptr %7, align 8, !tbaa !104
  %147 = call i32 @make_named_capture_number_map(ptr noundef %144, ptr noundef %145, ptr noundef %146)
  store i32 %147, ptr %8, align 4, !tbaa !4
  %148 = load i32, ptr %8, align 4, !tbaa !4
  %149 = icmp slt i32 %148, 0
  br i1 %149, label %150, label %152

150:                                              ; preds = %142
  %151 = load i32, ptr %8, align 4, !tbaa !4
  store i32 %151, ptr %4, align 4
  store i32 1, ptr %10, align 4
  br label %203

152:                                              ; preds = %142
  %153 = load ptr, ptr %12, align 8, !tbaa !15
  %154 = getelementptr inbounds nuw %struct.BagNode, ptr %153, i32 0, i32 5
  %155 = getelementptr inbounds nuw %struct.anon.40, ptr %154, i32 0, i32 0
  %156 = load ptr, ptr %155, align 8, !tbaa !32
  %157 = icmp ne ptr %156, null
  br i1 %157, label %158, label %170

158:                                              ; preds = %152
  %159 = load ptr, ptr %12, align 8, !tbaa !15
  %160 = getelementptr inbounds nuw %struct.BagNode, ptr %159, i32 0, i32 5
  %161 = getelementptr inbounds nuw %struct.anon.40, ptr %160, i32 0, i32 0
  %162 = load ptr, ptr %6, align 8, !tbaa !15
  %163 = load ptr, ptr %7, align 8, !tbaa !104
  %164 = call i32 @make_named_capture_number_map(ptr noundef %161, ptr noundef %162, ptr noundef %163)
  store i32 %164, ptr %8, align 4, !tbaa !4
  %165 = load i32, ptr %8, align 4, !tbaa !4
  %166 = icmp slt i32 %165, 0
  br i1 %166, label %167, label %169

167:                                              ; preds = %158
  %168 = load i32, ptr %8, align 4, !tbaa !4
  store i32 %168, ptr %4, align 4
  store i32 1, ptr %10, align 4
  br label %203

169:                                              ; preds = %158
  br label %170

170:                                              ; preds = %169, %152
  %171 = load ptr, ptr %12, align 8, !tbaa !15
  %172 = getelementptr inbounds nuw %struct.BagNode, ptr %171, i32 0, i32 5
  %173 = getelementptr inbounds nuw %struct.anon.40, ptr %172, i32 0, i32 1
  %174 = load ptr, ptr %173, align 8, !tbaa !32
  %175 = icmp ne ptr %174, null
  br i1 %175, label %176, label %188

176:                                              ; preds = %170
  %177 = load ptr, ptr %12, align 8, !tbaa !15
  %178 = getelementptr inbounds nuw %struct.BagNode, ptr %177, i32 0, i32 5
  %179 = getelementptr inbounds nuw %struct.anon.40, ptr %178, i32 0, i32 1
  %180 = load ptr, ptr %6, align 8, !tbaa !15
  %181 = load ptr, ptr %7, align 8, !tbaa !104
  %182 = call i32 @make_named_capture_number_map(ptr noundef %179, ptr noundef %180, ptr noundef %181)
  store i32 %182, ptr %8, align 4, !tbaa !4
  %183 = load i32, ptr %8, align 4, !tbaa !4
  %184 = icmp slt i32 %183, 0
  br i1 %184, label %185, label %187

185:                                              ; preds = %176
  %186 = load i32, ptr %8, align 4, !tbaa !4
  store i32 %186, ptr %4, align 4
  store i32 1, ptr %10, align 4
  br label %203

187:                                              ; preds = %176
  br label %188

188:                                              ; preds = %187, %170
  br label %201

189:                                              ; preds = %137
  %190 = load ptr, ptr %9, align 8, !tbaa !47
  %191 = getelementptr inbounds nuw %struct._Node, ptr %190, i32 0, i32 0
  %192 = getelementptr inbounds nuw %struct.anon.36, ptr %191, i32 0, i32 3
  %193 = load ptr, ptr %6, align 8, !tbaa !15
  %194 = load ptr, ptr %7, align 8, !tbaa !104
  %195 = call i32 @make_named_capture_number_map(ptr noundef %192, ptr noundef %193, ptr noundef %194)
  store i32 %195, ptr %8, align 4, !tbaa !4
  %196 = load i32, ptr %8, align 4, !tbaa !4
  %197 = icmp slt i32 %196, 0
  br i1 %197, label %198, label %200

198:                                              ; preds = %189
  %199 = load i32, ptr %8, align 4, !tbaa !4
  store i32 %199, ptr %4, align 4
  store i32 1, ptr %10, align 4
  br label %203

200:                                              ; preds = %189
  br label %201

201:                                              ; preds = %200, %188
  br label %202

202:                                              ; preds = %201, %136
  store i32 0, ptr %10, align 4
  br label %203

203:                                              ; preds = %202, %198, %185, %167, %150, %135, %133, %114
  call void @llvm.lifetime.end.p0(i64 8, ptr %12) #9
  %204 = load i32, ptr %10, align 4
  switch i32 %204, label %227 [
    i32 0, label %205
  ]

205:                                              ; preds = %203
  br label %226

206:                                              ; preds = %3
  %207 = load ptr, ptr %9, align 8, !tbaa !47
  %208 = getelementptr inbounds nuw %struct._Node, ptr %207, i32 0, i32 0
  %209 = getelementptr inbounds nuw %struct.anon.36, ptr %208, i32 0, i32 3
  %210 = load ptr, ptr %209, align 8, !tbaa !32
  %211 = icmp ne ptr %210, null
  br i1 %211, label %212, label %224

212:                                              ; preds = %206
  %213 = load ptr, ptr %9, align 8, !tbaa !47
  %214 = getelementptr inbounds nuw %struct._Node, ptr %213, i32 0, i32 0
  %215 = getelementptr inbounds nuw %struct.anon.36, ptr %214, i32 0, i32 3
  %216 = load ptr, ptr %6, align 8, !tbaa !15
  %217 = load ptr, ptr %7, align 8, !tbaa !104
  %218 = call i32 @make_named_capture_number_map(ptr noundef %215, ptr noundef %216, ptr noundef %217)
  store i32 %218, ptr %8, align 4, !tbaa !4
  %219 = load i32, ptr %8, align 4, !tbaa !4
  %220 = icmp slt i32 %219, 0
  br i1 %220, label %221, label %223

221:                                              ; preds = %212
  %222 = load i32, ptr %8, align 4, !tbaa !4
  store i32 %222, ptr %4, align 4
  store i32 1, ptr %10, align 4
  br label %227

223:                                              ; preds = %212
  br label %224

224:                                              ; preds = %223, %206
  br label %226

225:                                              ; preds = %3
  br label %226

226:                                              ; preds = %225, %224, %205, %72, %43
  store i32 0, ptr %4, align 4
  store i32 1, ptr %10, align 4
  br label %227

227:                                              ; preds = %226, %221, %203, %70, %41
  call void @llvm.lifetime.end.p0(i64 8, ptr %9) #9
  call void @llvm.lifetime.end.p0(i64 4, ptr %8) #9
  %228 = load i32, ptr %4, align 4
  ret i32 %228
}